target datalayout = "e-m:e-p270:32:32-p271:32:32-p272:64:64-i64:64-i128:128-f80:128-n8:16:32:64-S128"
target triple = "x86_64-pc-linux-gnu"

%class.RegMask = type { %union.anon, i32, i32 }
%union.anon = type { [11 x i64] }

@_ANY_REG_mask = hidden global %class.RegMask zeroinitializer, align 8
@_LONG_REG_mask = hidden global %class.RegMask zeroinitializer, align 8
@g_assert_poison = external global ptr, align 8
@.str.2293 = private unnamed_addr constant [11 x i8] c"ad_x86.cpp\00", align 1

; Function Attrs: mustprogress nounwind uwtable
define linkonce_odr hidden noundef nonnull align 8 dereferenceable(96) ptr @_Z13LONG_REG_maskv() #1 comdat {
  ret ptr @_LONG_REG_mask
}

; Function Attrs: mustprogress nounwind uwtable
define linkonce_odr hidden noundef nonnull align 8 dereferenceable(96) ptr @_Z12ANY_REG_maskv() #1 comdat {
  ret ptr @_ANY_REG_mask
}

; Function Attrs: mustprogress nounwind uwtable
define hidden noundef ptr @_ZNK18indIndexOffsetOper10in_RegMaskEi(ptr noundef nonnull align 8 dereferenceable(16) %0, i32 noundef %1) unnamed_addr #1 align 2 {
  %3 = alloca ptr, align 8
  %4 = alloca ptr, align 8
  %5 = alloca i32, align 4
  store ptr %0, ptr %4, align 8
  store i32 %1, ptr %5, align 4
  %6 = load i32, ptr %5, align 4
  switch i32 %6, label %11 [
    i32 0, label %7
    i32 1, label %9
  ]

7:                                                ; preds = %2
  %8 = call noundef nonnull align 8 dereferenceable(96) ptr @_Z12ANY_REG_maskv()
  store ptr %8, ptr %3, align 8
  br label %15

9:                                                ; preds = %2
  %10 = call noundef nonnull align 8 dereferenceable(96) ptr @_Z13LONG_REG_maskv()
  store ptr %10, ptr %3, align 8
  br label %15

11:                                               ; preds = %2
  br label %12

12:                                               ; preds = %11
  %13 = load ptr, ptr @g_assert_poison, align 8
  store i8 88, ptr %13, align 1
  call void @_Z28report_should_not_reach_herePKci(ptr noundef @.str.2293, i32 noundef 15779) #8
  unreachable

14:                                               ; No predecessors!
  store ptr null, ptr %3, align 8
  br label %15

15:                                               ; preds = %14, %9, %7
  %16 = load ptr, ptr %3, align 8
  ret ptr %16
}