; Function Attrs: mustprogress nounwind uwtable
define hidden noundef nonnull ptr @_ZNK18indIndexOffsetOper10in_RegMaskEi(ptr nocapture nonnull readnone align 8 %0, i32 noundef %1) unnamed_addr #3 align 2 {
  switch i32 %1, label %4 [
    i32 0, label %6
    i32 1, label %3
  ]

3:                                                ; preds = %2
  br label %6

4:                                                ; preds = %2
  %5 = load ptr, ptr @g_assert_poison, align 8
  store i8 88, ptr %5, align 1
  tail call void @_Z28report_should_not_reach_herePKci(ptr noundef nonnull @.str.2293, i32 noundef 15779) #24
  unreachable

6:                                                ; preds = %2, %3
  %.0 = phi ptr [ @_LONG_REG_mask, %3 ], [ @_ANY_REG_mask, %2 ]
  ret ptr %.0
}